; Function Attrs: mustprogress nounwind uwtable
define hidden void @_ZN19OpenColorIO_v2_4dev18FormatMetadataImpl5clearEv(ptr noundef nonnull align 8 dereferenceable(120) %this) unnamed_addr #4 align 2 personality ptr @__gxx_personality_v0 {
entry:
  %m_attributes = getelementptr inbounds i8, ptr %this, i64 72
  %0 = load ptr, ptr %m_attributes, align 8
  %_M_finish.i.i = getelementptr inbounds i8, ptr %this, i64 80
  %1 = load ptr, ptr %_M_finish.i.i, align 8
  %tobool.not.i.i = icmp eq ptr %1, %0
  br i1 %tobool.not.i.i, label %_ZNSt6vectorISt4pairINSt7__cxx1112basic_stringIcSt11char_traitsIcESaIcEEES6_ESaIS7_EE5clearEv.exit, label %for.body.i.i.i.i.i

for.body.i.i.i.i.i:                               ; preds = %entry, %for.body.i.i.i.i.i
  %__first.addr.04.i.i.i.i.i = phi ptr [ %incdec.ptr.i.i.i.i.i, %for.body.i.i.i.i.i ], [ %0, %entry ]
  %second.i.i.i.i.i.i.i = getelementptr inbounds i8, ptr %__first.addr.04.i.i.i.i.i, i64 32
  tail call void @_ZNSt7__cxx1112basic_stringIcSt11char_traitsIcESaIcEED1Ev(ptr noundef nonnull align 8 dereferenceable(32) %second.i.i.i.i.i.i.i) #17
  tail call void @_ZNSt7__cxx1112basic_stringIcSt11char_traitsIcESaIcEED1Ev(ptr noundef nonnull align 8 dereferenceable(32) %__first.addr.04.i.i.i.i.i) #17
  %incdec.ptr.i.i.i.i.i = getelementptr inbounds i8, ptr %__first.addr.04.i.i.i.i.i, i64 64
  %cmp.not.i.i.i.i.i = icmp eq ptr %incdec.ptr.i.i.i.i.i, %1
  br i1 %cmp.not.i.i.i.i.i, label %invoke.cont.i.i, label %for.body.i.i.i.i.i, !llvm.loop !8

invoke.cont.i.i:                                  ; preds = %for.body.i.i.i.i.i
  store ptr %0, ptr %_M_finish.i.i, align 8
  br label %_ZNSt6vectorISt4pairINSt7__cxx1112basic_stringIcSt11char_traitsIcESaIcEEES6_ESaIS7_EE5clearEv.exit

_ZNSt6vectorISt4pairINSt7__cxx1112basic_stringIcSt11char_traitsIcESaIcEEES6_ESaIS7_EE5clearEv.exit: ; preds = %entry, %invoke.cont.i.i
  %m_value = getelementptr inbounds i8, ptr %this, i64 40
  %call = invoke noundef nonnull align 8 dereferenceable(32) ptr @_ZNSt7__cxx1112basic_stringIcSt11char_traitsIcESaIcEEaSEPKc(ptr noundef nonnull align 8 dereferenceable(32) %m_value, ptr noundef nonnull @.str.12)
          to label %invoke.cont unwind label %terminate.lpad

invoke.cont:                                      ; preds = %_ZNSt6vectorISt4pairINSt7__cxx1112basic_stringIcSt11char_traitsIcESaIcEEES6_ESaIS7_EE5clearEv.exit
  %m_elements = getelementptr inbounds i8, ptr %this, i64 96
  %2 = load ptr, ptr %m_elements, align 8
  %_M_finish.i.i1 = getelementptr inbounds i8, ptr %this, i64 104
  %3 = load ptr, ptr %_M_finish.i.i1, align 8
  %tobool.not.i.i2 = icmp eq ptr %3, %2
  br i1 %tobool.not.i.i2, label %_ZNSt6vectorIN19OpenColorIO_v2_4dev18FormatMetadataImplESaIS1_EE5clearEv.exit, label %for.body.i.i.i.i.i3

for.body.i.i.i.i.i3:                              ; preds = %invoke.cont, %for.body.i.i.i.i.i3
  %__first.addr.04.i.i.i.i.i4 = phi ptr [ %incdec.ptr.i.i.i.i.i5, %for.body.i.i.i.i.i3 ], [ %2, %invoke.cont ]
  %vtable.i.i.i.i.i.i = load ptr, ptr %__first.addr.04.i.i.i.i.i4, align 8
  %vfn.i.i.i.i.i.i = getelementptr inbounds i8, ptr %vtable.i.i.i.i.i.i, i64 152
  %4 = load ptr, ptr %vfn.i.i.i.i.i.i, align 8
  tail call void %4(ptr noundef nonnull align 8 dereferenceable(120) %__first.addr.04.i.i.i.i.i4) #17
  %incdec.ptr.i.i.i.i.i5 = getelementptr inbounds i8, ptr %__first.addr.04.i.i.i.i.i4, i64 120
  %cmp.not.i.i.i.i.i6 = icmp eq ptr %incdec.ptr.i.i.i.i.i5, %3
  br i1 %cmp.not.i.i.i.i.i6, label %invoke.cont.i.i7, label %for.body.i.i.i.i.i3, !llvm.loop !7

invoke.cont.i.i7:                                 ; preds = %for.body.i.i.i.i.i3
  store ptr %2, ptr %_M_finish.i.i1, align 8
  br label %_ZNSt6vectorIN19OpenColorIO_v2_4dev18FormatMetadataImplESaIS1_EE5clearEv.exit

_ZNSt6vectorIN19OpenColorIO_v2_4dev18FormatMetadataImplESaIS1_EE5clearEv.exit: ; preds = %invoke.cont, %invoke.cont.i.i7
  ret void

terminate.lpad:                                   ; preds = %_ZNSt6vectorISt4pairINSt7__cxx1112basic_stringIcSt11char_traitsIcESaIcEEES6_ESaIS7_EE5clearEv.exit
  %5 = landingpad { ptr, i32 }
          catch ptr null
  %6 = extractvalue { ptr, i32 } %5, 0
  tail call void @__clang_call_terminate(ptr %6) #21
  unreachable
}